; Function Attrs: null_pointer_is_valid sspstrong uwtable
define internal void @bssmap_ho_cand_enq(ptr noundef %0, ptr noundef %1, ptr noundef %2, i32 noundef %3, i32 noundef %4) #1 {
  %6 = icmp sgt i32 %4, 0
  br i1 %6, label %7, label %13

7:                                                ; preds = %5
  %8 = tail call zeroext i16 @elem_tv(ptr noundef %0, ptr noundef %1, ptr noundef %2, i8 noundef zeroext 14, i32 noundef 0, i32 noundef 14, i32 noundef %3, ptr noundef null)
  %.not = icmp eq i16 %8, 0
  br i1 %.not, label %13, label %9

9:                                                ; preds = %7
  %10 = zext i16 %8 to i32
  %11 = add i32 %3, %10
  %12 = sub nsw i32 %4, %10
  br label %16

13:                                               ; preds = %7, %5
  %14 = tail call ptr @get_gsm_a_msg_string(i32 noundef 0, i32 noundef 14)
  %15 = tail call ptr (ptr, ptr, ptr, ptr, i32, i32, ptr, ...) @proto_tree_add_expert_format(ptr noundef %1, ptr noundef %2, ptr noundef nonnull @ei_gsm_a_bssmap_missing_mandatory_element, ptr noundef %0, i32 noundef %3, i32 noundef 0, ptr noundef nonnull @.str.139, i32 noundef 14, ptr noundef %14, ptr noundef nonnull @.str.137)
  br label %16

16:                                               ; preds = %13, %9
  %.050 = phi i32 [ %11, %9 ], [ %3, %13 ]
  %.0 = phi i32 [ %12, %9 ], [ %4, %13 ]
  %17 = icmp sgt i32 %.0, 0
  br i1 %17, label %18, label %24

18:                                               ; preds = %16
  %19 = tail call zeroext i16 @elem_tlv(ptr noundef %0, ptr noundef %1, ptr noundef %2, i8 noundef zeroext 26, i32 noundef 0, i32 noundef 26, i32 noundef %.050, i32 noundef %.0, ptr noundef null)
  %.not57 = icmp eq i16 %19, 0
  br i1 %.not57, label %24, label %20

20:                                               ; preds = %18
  %21 = zext i16 %19 to i32
  %22 = add i32 %.050, %21
  %23 = sub nsw i32 %.0, %21
  br label %27

24:                                               ; preds = %18, %16
  %25 = tail call ptr @get_gsm_a_msg_string(i32 noundef 0, i32 noundef 26)
  %26 = tail call ptr (ptr, ptr, ptr, ptr, i32, i32, ptr, ...) @proto_tree_add_expert_format(ptr noundef %1, ptr noundef %2, ptr noundef nonnull @ei_gsm_a_bssmap_missing_mandatory_element, ptr noundef %0, i32 noundef %.050, i32 noundef 0, ptr noundef nonnull @.str.139, i32 noundef 26, ptr noundef %25, ptr noundef nonnull @.str.137)
  br label %27

27:                                               ; preds = %24, %20
  %.151 = phi i32 [ %22, %20 ], [ %.050, %24 ]
  %.1 = phi i32 [ %23, %20 ], [ %.0, %24 ]
  %28 = icmp sgt i32 %.1, 0
  br i1 %28, label %29, label %35

29:                                               ; preds = %27
  %30 = tail call zeroext i16 @elem_tlv(ptr noundef %0, ptr noundef %1, ptr noundef %2, i8 noundef zeroext 5, i32 noundef 0, i32 noundef 5, i32 noundef %.151, i32 noundef %.1, ptr noundef null)
  %.not58 = icmp eq i16 %30, 0
  br i1 %.not58, label %35, label %31

31:                                               ; preds = %29
  %32 = zext i16 %30 to i32
  %33 = add i32 %.151, %32
  %34 = sub nsw i32 %.1, %32
  br label %38

35:                                               ; preds = %29, %27
  %36 = tail call ptr @get_gsm_a_msg_string(i32 noundef 0, i32 noundef 5)
  %37 = tail call ptr (ptr, ptr, ptr, ptr, i32, i32, ptr, ...) @proto_tree_add_expert_format(ptr noundef %1, ptr noundef %2, ptr noundef nonnull @ei_gsm_a_bssmap_missing_mandatory_element, ptr noundef %0, i32 noundef %.151, i32 noundef 0, ptr noundef nonnull @.str.139, i32 noundef 5, ptr noundef %36, ptr noundef nonnull @.str.137)
  br label %38

38:                                               ; preds = %35, %31
  %.252 = phi i32 [ %33, %31 ], [ %.151, %35 ]
  %.2 = phi i32 [ %34, %31 ], [ %.1, %35 ]
  %.not59 = icmp eq i32 %.2, 0
  br i1 %.not59, label %41, label %39

39:                                               ; preds = %38
  %40 = tail call ptr @proto_tree_add_expert(ptr noundef %1, ptr noundef %2, ptr noundef nonnull @ei_gsm_a_bssmap_extraneous_data, ptr noundef %0, i32 noundef %.252, i32 noundef %.2)
  br label %41

41:                                               ; preds = %39, %38
  ret void
}